target datalayout = "e-m:e-p270:32:32-p271:32:32-p272:64:64-i64:64-i128:128-f80:128-n8:16:32:64-S128"
target triple = "x86_64-unknown-linux-gnu"

%class.btSphereSphereCollisionAlgorithm = type { %class.btActivatingCollisionAlgorithm, i8, ptr }
%class.btActivatingCollisionAlgorithm = type { %class.btCollisionAlgorithm }
%class.btCollisionAlgorithm = type { ptr, ptr }
%struct.btCollisionObjectWrapper = type { ptr, ptr, ptr, ptr, ptr, i32, i32 }

; Function Attrs: mustprogress nounwind uwtable
define linkonce_odr dso_local noundef ptr @_ZNK24btCollisionObjectWrapper18getCollisionObjectEv(ptr noundef nonnull align 8 dereferenceable(48) %this) #1 comdat align 2 {
entry:
  %this.addr = alloca ptr, align 8
  store ptr %this, ptr %this.addr, align 8
  %this1 = load ptr, ptr %this.addr, align 8
  %m_collisionObject = getelementptr inbounds %struct.btCollisionObjectWrapper, ptr %this1, i32 0, i32 2
  %0 = load ptr, ptr %m_collisionObject, align 8
  ret ptr %0
}

; Function Attrs: mustprogress uwtable
define dso_local void @_ZN32btSphereSphereCollisionAlgorithmC2EP20btPersistentManifoldRK36btCollisionAlgorithmConstructionInfoPK24btCollisionObjectWrapperS7_(ptr noundef nonnull align 8 dereferenceable(32) %this, ptr noundef %mf, ptr noundef nonnull align 8 dereferenceable(16) %ci, ptr noundef %col0Wrap, ptr noundef %col1Wrap) unnamed_addr #2 align 2 personality ptr @__gxx_personality_v0 {
entry:
  %this.addr = alloca ptr, align 8
  %mf.addr = alloca ptr, align 8
  %ci.addr = alloca ptr, align 8
  %col0Wrap.addr = alloca ptr, align 8
  %col1Wrap.addr = alloca ptr, align 8
  %exn.slot = alloca ptr, align 8
  %ehselector.slot = alloca i32, align 4
  store ptr %this, ptr %this.addr, align 8
  store ptr %mf, ptr %mf.addr, align 8
  store ptr %ci, ptr %ci.addr, align 8
  store ptr %col0Wrap, ptr %col0Wrap.addr, align 8
  store ptr %col1Wrap, ptr %col1Wrap.addr, align 8
  %this1 = load ptr, ptr %this.addr, align 8
  %0 = load ptr, ptr %ci.addr, align 8
  %1 = load ptr, ptr %col0Wrap.addr, align 8
  %2 = load ptr, ptr %col1Wrap.addr, align 8
  call void @_ZN30btActivatingCollisionAlgorithmC2ERK36btCollisionAlgorithmConstructionInfoPK24btCollisionObjectWrapperS5_(ptr noundef nonnull align 8 dereferenceable(16) %this1, ptr noundef nonnull align 8 dereferenceable(16) %0, ptr noundef %1, ptr noundef %2)
  store ptr getelementptr inbounds ({ [7 x ptr] }, ptr @_ZTV32btSphereSphereCollisionAlgorithm, i32 0, i32 0, i32 2), ptr %this1, align 8
  %m_ownManifold = getelementptr inbounds %class.btSphereSphereCollisionAlgorithm, ptr %this1, i32 0, i32 1
  store i8 0, ptr %m_ownManifold, align 8
  %m_manifoldPtr = getelementptr inbounds %class.btSphereSphereCollisionAlgorithm, ptr %this1, i32 0, i32 2
  %3 = load ptr, ptr %mf.addr, align 8
  store ptr %3, ptr %m_manifoldPtr, align 8
  %m_manifoldPtr2 = getelementptr inbounds %class.btSphereSphereCollisionAlgorithm, ptr %this1, i32 0, i32 2
  %4 = load ptr, ptr %m_manifoldPtr2, align 8
  %tobool = icmp ne ptr %4, null
  br i1 %tobool, label %if.end, label %if.then

if.then:                                          ; preds = %entry
  %m_dispatcher = getelementptr inbounds %class.btCollisionAlgorithm, ptr %this1, i32 0, i32 1
  %5 = load ptr, ptr %m_dispatcher, align 8
  %6 = load ptr, ptr %col0Wrap.addr, align 8
  %call = invoke noundef ptr @_ZNK24btCollisionObjectWrapper18getCollisionObjectEv(ptr noundef nonnull align 8 dereferenceable(48) %6)
          to label %invoke.cont unwind label %lpad

invoke.cont:                                      ; preds = %if.then
  %7 = load ptr, ptr %col1Wrap.addr, align 8
  %call4 = invoke noundef ptr @_ZNK24btCollisionObjectWrapper18getCollisionObjectEv(ptr noundef nonnull align 8 dereferenceable(48) %7)
          to label %invoke.cont3 unwind label %lpad

invoke.cont3:                                     ; preds = %invoke.cont
  %vtable = load ptr, ptr %5, align 8
  %vfn = getelementptr inbounds ptr, ptr %vtable, i64 3
  %8 = load ptr, ptr %vfn, align 8
  %call6 = invoke noundef ptr %8(ptr noundef nonnull align 8 dereferenceable(8) %5, ptr noundef %call, ptr noundef %call4)
          to label %invoke.cont5 unwind label %lpad

invoke.cont5:                                     ; preds = %invoke.cont3
  %m_manifoldPtr7 = getelementptr inbounds %class.btSphereSphereCollisionAlgorithm, ptr %this1, i32 0, i32 2
  store ptr %call6, ptr %m_manifoldPtr7, align 8
  %m_ownManifold8 = getelementptr inbounds %class.btSphereSphereCollisionAlgorithm, ptr %this1, i32 0, i32 1
  store i8 1, ptr %m_ownManifold8, align 8
  br label %if.end

lpad:                                             ; preds = %invoke.cont3, %invoke.cont, %if.then
  %9 = landingpad { ptr, i32 }
          cleanup
  %10 = extractvalue { ptr, i32 } %9, 0
  store ptr %10, ptr %exn.slot, align 8
  %11 = extractvalue { ptr, i32 } %9, 1
  store i32 %11, ptr %ehselector.slot, align 4
  call void @_ZN30btActivatingCollisionAlgorithmD2Ev(ptr noundef nonnull align 8 dereferenceable(16) %this1) #10
  br label %eh.resume

if.end:                                           ; preds = %invoke.cont5, %entry
  ret void

eh.resume:                                        ; preds = %lpad
  %exn = load ptr, ptr %exn.slot, align 8
  %sel = load i32, ptr %ehselector.slot, align 4
  %lpad.val = insertvalue { ptr, i32 } poison, ptr %exn, 0
  %lpad.val9 = insertvalue { ptr, i32 } %lpad.val, i32 %sel, 1
  resume { ptr, i32 } %lpad.val9
}