; Function Attrs: mustprogress uwtable
define dso_local void @_ZN32btSphereSphereCollisionAlgorithmC2EP20btPersistentManifoldRK36btCollisionAlgorithmConstructionInfoPK24btCollisionObjectWrapperS7_(ptr noundef nonnull align 8 dereferenceable(32) %this, ptr noundef %mf, ptr noundef nonnull align 8 dereferenceable(16) %ci, ptr noundef %col0Wrap, ptr noundef %col1Wrap) unnamed_addr #0 align 2 personality ptr @__gxx_personality_v0 {
entry:
  tail call void @_ZN30btActivatingCollisionAlgorithmC2ERK36btCollisionAlgorithmConstructionInfoPK24btCollisionObjectWrapperS5_(ptr noundef nonnull align 8 dereferenceable(16) %this, ptr noundef nonnull align 8 dereferenceable(16) %ci, ptr noundef %col0Wrap, ptr noundef %col1Wrap)
  store ptr getelementptr inbounds ({ [7 x ptr] }, ptr @_ZTV32btSphereSphereCollisionAlgorithm, i64 0, i32 0, i64 2), ptr %this, align 8
  %m_ownManifold = getelementptr inbounds i8, ptr %this, i64 16
  store i8 0, ptr %m_ownManifold, align 8
  %m_manifoldPtr = getelementptr inbounds i8, ptr %this, i64 24
  store ptr %mf, ptr %m_manifoldPtr, align 8
  %tobool.not = icmp eq ptr %mf, null
  br i1 %tobool.not, label %if.then, label %if.end

if.then:                                          ; preds = %entry
  %m_dispatcher = getelementptr inbounds i8, ptr %this, i64 8
  %0 = load ptr, ptr %m_dispatcher, align 8
  %m_collisionObject.i = getelementptr inbounds i8, ptr %col0Wrap, i64 16
  %1 = load ptr, ptr %m_collisionObject.i, align 8
  %m_collisionObject.i3 = getelementptr inbounds i8, ptr %col1Wrap, i64 16
  %2 = load ptr, ptr %m_collisionObject.i3, align 8
  %vtable = load ptr, ptr %0, align 8
  %vfn = getelementptr inbounds i8, ptr %vtable, i64 24
  %3 = load ptr, ptr %vfn, align 8
  %call6 = invoke noundef ptr %3(ptr noundef nonnull align 8 dereferenceable(8) %0, ptr noundef %1, ptr noundef %2)
          to label %invoke.cont5 unwind label %lpad

invoke.cont5:                                     ; preds = %if.then
  store ptr %call6, ptr %m_manifoldPtr, align 8
  store i8 1, ptr %m_ownManifold, align 8
  br label %if.end

lpad:                                             ; preds = %if.then
  %4 = landingpad { ptr, i32 }
          cleanup
  tail call void @_ZN30btActivatingCollisionAlgorithmD2Ev(ptr noundef nonnull align 8 dereferenceable(16) %this) #11
  resume { ptr, i32 } %4

if.end:                                           ; preds = %invoke.cont5, %entry
  ret void
}